target datalayout = "e-m:e-p270:32:32-p271:32:32-p272:64:64-i64:64-i128:128-f80:128-n8:16:32:64-S128"
target triple = "x86_64-pc-linux-gnu"

%struct.TCGOpDef = type { ptr, i8, i8, i8, i8, i8 }
%struct.OptContext = type { ptr, ptr, %struct.TCGTempSet, %struct.RBRootLeftCached, %struct.anon, i32 }
%struct.TCGTempSet = type { [8 x i64] }
%struct.RBRootLeftCached = type { %struct.RBRoot, ptr }
%struct.RBRoot = type { ptr }
%struct.anon = type { ptr, ptr }
%struct.TCGTemp = type { i64, i64, ptr, i64, ptr, i64, ptr }
%struct.QTailQLink = type { ptr, ptr }
%struct.TCGOp = type { i32, i32, %union.anon.2, [2 x i32], [0 x i64] }
%union.anon.2 = type { %struct.QTailQLink }
%struct.TempOptInfo = type { i8, ptr, ptr, %struct.anon.3, i64, i64, i64 }
%struct.anon.3 = type { ptr, ptr }

@tcg_op_defs = external constant [0 x %struct.TCGOpDef], align 8

; Function Attrs: inlinehint nounwind sspstrong uwtable
define internal i32 @clz64(i64 noundef %0) #3 {
  %2 = alloca i64, align 8
  store i64 %0, ptr %2, align 8
  %3 = load i64, ptr %2, align 8
  %4 = icmp ne i64 %3, 0
  br i1 %4, label %5, label %9

5:                                                ; preds = %1
  %6 = load i64, ptr %2, align 8
  %7 = call i64 @llvm.ctlz.i64(i64 %6, i1 true)
  %8 = trunc i64 %7 to i32
  br label %10

9:                                                ; preds = %1
  br label %10

10:                                               ; preds = %9, %5
  %11 = phi i32 [ %8, %5 ], [ 64, %9 ]
  ret i32 %11
}

; Function Attrs: inlinehint nounwind sspstrong uwtable
define internal ptr @ts_info(ptr noundef %0) #3 {
  %2 = alloca ptr, align 8
  store ptr %0, ptr %2, align 8
  %3 = load ptr, ptr %2, align 8
  %4 = getelementptr inbounds nuw %struct.TCGTemp, ptr %3, i32 0, i32 6
  %5 = load ptr, ptr %4, align 8
  ret ptr %5
}

; Function Attrs: inlinehint nounwind sspstrong uwtable
define internal ptr @arg_temp(i64 noundef %0) #3 {
  %2 = alloca i64, align 8
  store i64 %0, ptr %2, align 8
  %3 = load i64, ptr %2, align 8
  %4 = inttoptr i64 %3 to ptr
  ret ptr %4
}

; Function Attrs: nounwind sspstrong uwtable
define internal zeroext i1 @fold_masks_zs(ptr noundef %0, ptr noundef %1, i64 noundef %2, i64 noundef %3) #0 {
  %5 = alloca i1, align 1
  %6 = alloca ptr, align 8
  %7 = alloca ptr, align 8
  %8 = alloca i64, align 8
  %9 = alloca i64, align 8
  %10 = alloca ptr, align 8
  %11 = alloca ptr, align 8
  %12 = alloca ptr, align 8
  %13 = alloca i32, align 4
  %14 = alloca i32, align 4
  %15 = alloca i32, align 4
  %16 = alloca i32, align 4
  %17 = alloca i32, align 4
  %18 = alloca i32, align 4
  %19 = alloca i32, align 4
  %20 = alloca i32, align 4
  store ptr %0, ptr %6, align 8
  store ptr %1, ptr %7, align 8
  store i64 %2, ptr %8, align 8
  store i64 %3, ptr %9, align 8
  call void @llvm.lifetime.start.p0(i64 8, ptr %10) #13
  %21 = load ptr, ptr %7, align 8
  %22 = load i32, ptr %21, align 8
  %23 = and i32 %22, 255
  %24 = zext i32 %23 to i64
  %25 = getelementptr inbounds nuw [0 x %struct.TCGOpDef], ptr @tcg_op_defs, i64 0, i64 %24
  store ptr %25, ptr %10, align 8
  call void @llvm.lifetime.start.p0(i64 8, ptr %11) #13
  store ptr null, ptr %11, align 8, !annotation !4
  call void @llvm.lifetime.start.p0(i64 8, ptr %12) #13
  store ptr null, ptr %12, align 8, !annotation !4
  call void @llvm.lifetime.start.p0(i64 4, ptr %13) #13
  store i32 0, ptr %13, align 4, !annotation !4
  br label %26

26:                                               ; preds = %4
  %27 = load ptr, ptr %10, align 8
  %28 = getelementptr inbounds nuw %struct.TCGOpDef, ptr %27, i32 0, i32 1
  %29 = load i8, ptr %28, align 8
  %30 = zext i8 %29 to i32
  %31 = icmp eq i32 %30, 1
  br i1 %31, label %33, label %32

32:                                               ; preds = %26
  unreachable

33:                                               ; preds = %26
  br label %34

34:                                               ; preds = %33
  br label %35

35:                                               ; preds = %34
  %36 = load ptr, ptr %6, align 8
  %37 = getelementptr inbounds nuw %struct.OptContext, ptr %36, i32 0, i32 5
  %38 = load i32, ptr %37, align 8
  %39 = icmp eq i32 %38, 0
  br i1 %39, label %40, label %46

40:                                               ; preds = %35
  %41 = load i64, ptr %8, align 8
  %42 = trunc i64 %41 to i32
  %43 = sext i32 %42 to i64
  store i64 %43, ptr %8, align 8
  %44 = load i64, ptr %9, align 8
  %45 = or i64 %44, -2147483648
  store i64 %45, ptr %9, align 8
  br label %46

46:                                               ; preds = %40, %35
  %47 = load i64, ptr %8, align 8
  %48 = icmp eq i64 %47, 0
  br i1 %48, label %49, label %57

49:                                               ; preds = %46
  %50 = load ptr, ptr %6, align 8
  %51 = load ptr, ptr %7, align 8
  %52 = load ptr, ptr %7, align 8
  %53 = getelementptr inbounds nuw %struct.TCGOp, ptr %52, i32 0, i32 4
  %54 = getelementptr inbounds [0 x i64], ptr %53, i64 0, i64 0
  %55 = load i64, ptr %54, align 8
  %56 = call zeroext i1 @tcg_opt_gen_movi(ptr noundef %50, ptr noundef %51, i64 noundef %55, i64 noundef 0)
  store i1 %56, ptr %5, align 1
  store i32 1, ptr %14, align 4
  br label %103

57:                                               ; preds = %46
  %58 = load ptr, ptr %7, align 8
  %59 = getelementptr inbounds nuw %struct.TCGOp, ptr %58, i32 0, i32 4
  %60 = getelementptr inbounds [0 x i64], ptr %59, i64 0, i64 0
  %61 = load i64, ptr %60, align 8
  %62 = call ptr @arg_temp(i64 noundef %61)
  store ptr %62, ptr %11, align 8
  %63 = load ptr, ptr %6, align 8
  %64 = load ptr, ptr %11, align 8
  call void @reset_ts(ptr noundef %63, ptr noundef %64)
  %65 = load ptr, ptr %11, align 8
  %66 = call ptr @ts_info(ptr noundef %65)
  store ptr %66, ptr %12, align 8
  %67 = load i64, ptr %8, align 8
  %68 = load ptr, ptr %12, align 8
  %69 = getelementptr inbounds nuw %struct.TempOptInfo, ptr %68, i32 0, i32 5
  store i64 %67, ptr %69, align 8
  %70 = load i64, ptr %9, align 8
  %71 = xor i64 %70, -1
  %72 = call i32 @clz64(i64 noundef %71)
  store i32 %72, ptr %13, align 4
  call void @llvm.lifetime.start.p0(i64 4, ptr %15) #13
  %73 = load i32, ptr %13, align 4
  store i32 %73, ptr %15, align 4
  call void @llvm.lifetime.start.p0(i64 4, ptr %16) #13
  %74 = load i64, ptr %8, align 8
  %75 = call i32 @clz64(i64 noundef %74)
  store i32 %75, ptr %16, align 4
  %76 = load i32, ptr %15, align 4
  %77 = load i32, ptr %16, align 4
  %78 = icmp sgt i32 %76, %77
  br i1 %78, label %79, label %81

79:                                               ; preds = %57
  %80 = load i32, ptr %15, align 4
  br label %83

81:                                               ; preds = %57
  %82 = load i32, ptr %16, align 4
  br label %83

83:                                               ; preds = %81, %79
  %84 = phi i32 [ %80, %79 ], [ %82, %81 ]
  store i32 %84, ptr %17, align 4
  call void @llvm.lifetime.end.p0(i64 4, ptr %16) #13
  call void @llvm.lifetime.end.p0(i64 4, ptr %15) #13
  %85 = load i32, ptr %17, align 4
  store i32 %85, ptr %13, align 4
  call void @llvm.lifetime.start.p0(i64 4, ptr %18) #13
  %86 = load i32, ptr %13, align 4
  %87 = sub i32 %86, 1
  store i32 %87, ptr %18, align 4
  call void @llvm.lifetime.start.p0(i64 4, ptr %19) #13
  store i32 0, ptr %19, align 4
  %88 = load i32, ptr %18, align 4
  %89 = load i32, ptr %19, align 4
  %90 = icmp sgt i32 %88, %89
  br i1 %90, label %91, label %93

91:                                               ; preds = %83
  %92 = load i32, ptr %18, align 4
  br label %95

93:                                               ; preds = %83
  %94 = load i32, ptr %19, align 4
  br label %95

95:                                               ; preds = %93, %91
  %96 = phi i32 [ %92, %91 ], [ %94, %93 ]
  store i32 %96, ptr %20, align 4
  call void @llvm.lifetime.end.p0(i64 4, ptr %19) #13
  call void @llvm.lifetime.end.p0(i64 4, ptr %18) #13
  %97 = load i32, ptr %20, align 4
  store i32 %97, ptr %13, align 4
  %98 = load i32, ptr %13, align 4
  %99 = zext i32 %98 to i64
  %100 = ashr i64 -9223372036854775808, %99
  %101 = load ptr, ptr %12, align 8
  %102 = getelementptr inbounds nuw %struct.TempOptInfo, ptr %101, i32 0, i32 6
  store i64 %100, ptr %102, align 8
  store i1 true, ptr %5, align 1
  store i32 1, ptr %14, align 4
  br label %103

103:                                              ; preds = %95, %49
  call void @llvm.lifetime.end.p0(i64 4, ptr %13) #13
  call void @llvm.lifetime.end.p0(i64 8, ptr %12) #13
  call void @llvm.lifetime.end.p0(i64 8, ptr %11) #13
  call void @llvm.lifetime.end.p0(i64 8, ptr %10) #13
  %104 = load i1, ptr %5, align 1
  ret i1 %104
}

; Function Attrs: nounwind sspstrong uwtable
define internal zeroext i1 @fold_masks_z(ptr noundef %0, ptr noundef %1, i64 noundef %2) #0 {
  %4 = alloca ptr, align 8
  %5 = alloca ptr, align 8
  %6 = alloca i64, align 8
  store ptr %0, ptr %4, align 8
  store ptr %1, ptr %5, align 8
  store i64 %2, ptr %6, align 8
  %7 = load ptr, ptr %4, align 8
  %8 = load ptr, ptr %5, align 8
  %9 = load i64, ptr %6, align 8
  %10 = call zeroext i1 @fold_masks_zs(ptr noundef %7, ptr noundef %8, i64 noundef %9, i64 noundef 0)
  ret i1 %10
}

; Function Attrs: nounwind sspstrong uwtable
define internal zeroext i1 @tcg_opt_gen_movi(ptr noundef %0, ptr noundef %1, i64 noundef %2, i64 noundef %3) #0 {
  %5 = alloca ptr, align 8
  %6 = alloca ptr, align 8
  %7 = alloca i64, align 8
  %8 = alloca i64, align 8
  store ptr %0, ptr %5, align 8
  store ptr %1, ptr %6, align 8
  store i64 %2, ptr %7, align 8
  store i64 %3, ptr %8, align 8
  %9 = load ptr, ptr %5, align 8
  %10 = load ptr, ptr %6, align 8
  %11 = load i64, ptr %7, align 8
  %12 = load ptr, ptr %5, align 8
  %13 = load i64, ptr %8, align 8
  %14 = call i64 @arg_new_constant(ptr noundef %12, i64 noundef %13)
  %15 = call zeroext i1 @tcg_opt_gen_mov(ptr noundef %9, ptr noundef %10, i64 noundef %11, i64 noundef %14)
  ret i1 %15
}

; Function Attrs: nounwind sspstrong uwtable
define internal zeroext i1 @fold_setcond(ptr noundef %0, ptr noundef %1) #0 {
  %3 = alloca i1, align 1
  %4 = alloca ptr, align 8
  %5 = alloca ptr, align 8
  %6 = alloca i32, align 4
  %7 = alloca i32, align 4
  store ptr %0, ptr %4, align 8
  store ptr %1, ptr %5, align 8
  call void @llvm.lifetime.start.p0(i64 4, ptr %6) #13
  %8 = load ptr, ptr %4, align 8
  %9 = load ptr, ptr %5, align 8
  %10 = load ptr, ptr %5, align 8
  %11 = getelementptr inbounds nuw %struct.TCGOp, ptr %10, i32 0, i32 4
  %12 = getelementptr inbounds [0 x i64], ptr %11, i64 0, i64 0
  %13 = load i64, ptr %12, align 8
  %14 = load ptr, ptr %5, align 8
  %15 = getelementptr inbounds nuw %struct.TCGOp, ptr %14, i32 0, i32 4
  %16 = getelementptr inbounds [0 x i64], ptr %15, i64 0, i64 1
  %17 = load ptr, ptr %5, align 8
  %18 = getelementptr inbounds nuw %struct.TCGOp, ptr %17, i32 0, i32 4
  %19 = getelementptr inbounds [0 x i64], ptr %18, i64 0, i64 2
  %20 = load ptr, ptr %5, align 8
  %21 = getelementptr inbounds nuw %struct.TCGOp, ptr %20, i32 0, i32 4
  %22 = getelementptr inbounds [0 x i64], ptr %21, i64 0, i64 3
  %23 = call i32 @do_constant_folding_cond1(ptr noundef %8, ptr noundef %9, i64 noundef %13, ptr noundef %16, ptr noundef %19, ptr noundef %22)
  store i32 %23, ptr %6, align 4
  %24 = load i32, ptr %6, align 4
  %25 = icmp sge i32 %24, 0
  br i1 %25, label %26, label %36

26:                                               ; preds = %2
  %27 = load ptr, ptr %4, align 8
  %28 = load ptr, ptr %5, align 8
  %29 = load ptr, ptr %5, align 8
  %30 = getelementptr inbounds nuw %struct.TCGOp, ptr %29, i32 0, i32 4
  %31 = getelementptr inbounds [0 x i64], ptr %30, i64 0, i64 0
  %32 = load i64, ptr %31, align 8
  %33 = load i32, ptr %6, align 4
  %34 = sext i32 %33 to i64
  %35 = call zeroext i1 @tcg_opt_gen_movi(ptr noundef %27, ptr noundef %28, i64 noundef %32, i64 noundef %34)
  store i1 %35, ptr %3, align 1
  store i32 1, ptr %7, align 4
  br label %53

36:                                               ; preds = %2
  %37 = load ptr, ptr %4, align 8
  %38 = load ptr, ptr %5, align 8
  %39 = call i32 @fold_setcond_zmask(ptr noundef %37, ptr noundef %38, i1 noundef zeroext false)
  store i32 %39, ptr %6, align 4
  %40 = load i32, ptr %6, align 4
  %41 = icmp sgt i32 %40, 0
  br i1 %41, label %42, label %43

42:                                               ; preds = %36
  store i1 true, ptr %3, align 1
  store i32 1, ptr %7, align 4
  br label %53

43:                                               ; preds = %36
  %44 = load i32, ptr %6, align 4
  %45 = icmp eq i32 %44, 0
  br i1 %45, label %46, label %49

46:                                               ; preds = %43
  %47 = load ptr, ptr %4, align 8
  %48 = load ptr, ptr %5, align 8
  call void @fold_setcond_tst_pow2(ptr noundef %47, ptr noundef %48, i1 noundef zeroext false)
  br label %49

49:                                               ; preds = %46, %43
  %50 = load ptr, ptr %4, align 8
  %51 = load ptr, ptr %5, align 8
  %52 = call zeroext i1 @fold_masks_z(ptr noundef %50, ptr noundef %51, i64 noundef 1)
  store i1 %52, ptr %3, align 1
  store i32 1, ptr %7, align 4
  br label %53

53:                                               ; preds = %49, %42, %26
  call void @llvm.lifetime.end.p0(i64 4, ptr %6) #13
  %54 = load i1, ptr %3, align 1
  ret i1 %54
}