; Function Attrs: nounwind sspstrong uwtable
define internal fastcc void @fold_setcond(ptr noundef nonnull %0, ptr noundef nonnull %1) unnamed_addr #0 {
  %3 = getelementptr inbounds nuw i8, ptr %1, i64 32
  %4 = load i64, ptr %3, align 8
  %5 = getelementptr inbounds nuw i8, ptr %1, i64 40
  %6 = getelementptr inbounds nuw i8, ptr %1, i64 48
  %7 = getelementptr inbounds nuw i8, ptr %1, i64 56
  %8 = tail call fastcc i32 @do_constant_folding_cond1(ptr noundef %0, i64 noundef %4, ptr noundef %5, ptr noundef %6, ptr noundef %7)
  %9 = icmp sgt i32 %8, -1
  br i1 %9, label %10, label %14

10:                                               ; preds = %2
  %11 = load i64, ptr %3, align 8
  %12 = zext nneg i32 %8 to i64
  %13 = tail call fastcc i64 @arg_new_constant(ptr noundef nonnull %0, i64 noundef %12)
  tail call fastcc void @tcg_opt_gen_mov(ptr noundef nonnull %0, ptr noundef nonnull %1, i64 noundef %11, i64 noundef %13)
  br label %32

14:                                               ; preds = %2
  %15 = tail call fastcc i32 @fold_setcond_zmask(ptr noundef %0, ptr noundef %1, i1 noundef zeroext false)
  %16 = icmp sgt i32 %15, 0
  br i1 %16, label %32, label %17

17:                                               ; preds = %14
  %18 = icmp eq i32 %15, 0
  br i1 %18, label %19, label %20

19:                                               ; preds = %17
  tail call fastcc void @fold_setcond_tst_pow2(ptr noundef %0, ptr noundef %1, i1 noundef zeroext false)
  br label %20

20:                                               ; preds = %19, %17
  %21 = load i32, ptr %1, align 8
  %22 = and i32 %21, 255
  %23 = zext nneg i32 %22 to i64
  %24 = getelementptr inbounds nuw [0 x %struct.TCGOpDef], ptr @tcg_op_defs, i64 0, i64 %23, i32 1
  %25 = load i8, ptr %24, align 8
  %26 = icmp eq i8 %25, 1
  tail call void @llvm.assume(i1 %26)
  %27 = load i64, ptr %3, align 8
  %28 = inttoptr i64 %27 to ptr
  tail call fastcc void @reset_ts(ptr noundef nonnull %0, ptr noundef %28)
  %29 = getelementptr i8, ptr %28, i64 48
  %.val.i.i = load ptr, ptr %29, align 8
  %30 = getelementptr inbounds nuw i8, ptr %.val.i.i, i64 48
  store i64 1, ptr %30, align 8
  %31 = getelementptr inbounds nuw i8, ptr %.val.i.i, i64 56
  store i64 -2, ptr %31, align 8
  br label %32

32:                                               ; preds = %14, %20, %10
  ret void
}